target datalayout = "e-m:e-p270:32:32-p271:32:32-p272:64:64-i64:64-i128:128-f80:128-n8:16:32:64-S128"
target triple = "x86_64-pc-linux-gnu"

%"struct.std::_Vector_base" = type { %"struct.std::_Vector_base<long long, std::allocator<long long>>::_Vector_impl" }
%"struct.std::_Vector_base<long long, std::allocator<long long>>::_Vector_impl" = type { %"struct.std::_Vector_base<long long, std::allocator<long long>>::_Vector_impl_data" }
%"struct.std::_Vector_base<long long, std::allocator<long long>>::_Vector_impl_data" = type { ptr, ptr, ptr }

; Function Attrs: mustprogress nounwind uwtable
define linkonce_odr hidden noundef nonnull align 8 dereferenceable(8) ptr @_ZNKSt6vectorIxSaIxEEixEm(ptr noundef nonnull align 8 dereferenceable(24) %0, i64 noundef %1) #4 comdat align 2 {
  %3 = alloca ptr, align 8
  %4 = alloca i64, align 8
  store ptr %0, ptr %3, align 8
  store i64 %1, ptr %4, align 8
  %5 = load ptr, ptr %3, align 8
  %6 = getelementptr inbounds %"struct.std::_Vector_base", ptr %5, i32 0, i32 0
  %7 = getelementptr inbounds %"struct.std::_Vector_base<long long, std::allocator<long long>>::_Vector_impl_data", ptr %6, i32 0, i32 0
  %8 = load ptr, ptr %7, align 8
  %9 = load i64, ptr %4, align 8
  %10 = getelementptr inbounds i64, ptr %8, i64 %9
  ret ptr %10
}

; Function Attrs: mustprogress nounwind uwtable
define linkonce_odr hidden noundef nonnull align 8 dereferenceable(8) ptr @_ZNSt6vectorIxSaIxEEixEm(ptr noundef nonnull align 8 dereferenceable(24) %0, i64 noundef %1) #4 comdat align 2 {
  %3 = alloca ptr, align 8
  %4 = alloca i64, align 8
  store ptr %0, ptr %3, align 8
  store i64 %1, ptr %4, align 8
  %5 = load ptr, ptr %3, align 8
  %6 = getelementptr inbounds %"struct.std::_Vector_base", ptr %5, i32 0, i32 0
  %7 = getelementptr inbounds %"struct.std::_Vector_base<long long, std::allocator<long long>>::_Vector_impl_data", ptr %6, i32 0, i32 0
  %8 = load ptr, ptr %7, align 8
  %9 = load i64, ptr %4, align 8
  %10 = getelementptr inbounds i64, ptr %8, i64 %9
  ret ptr %10
}

; Function Attrs: mustprogress nounwind uwtable
define void @_ZN6casadi16SparsityInternal9unmatchedExRKSt6vectorIxSaIxEERS3_S6_x(i64 noundef %0, ptr noundef nonnull align 8 dereferenceable(24) %1, ptr noundef nonnull align 8 dereferenceable(24) %2, ptr noundef nonnull align 8 dereferenceable(24) %3, i64 noundef %4) #4 align 2 {
  %6 = alloca i64, align 8
  %7 = alloca ptr, align 8
  %8 = alloca ptr, align 8
  %9 = alloca ptr, align 8
  %10 = alloca i64, align 8
  %11 = alloca i64, align 8
  %12 = alloca i64, align 8
  store i64 %0, ptr %6, align 8
  store ptr %1, ptr %7, align 8
  store ptr %2, ptr %8, align 8
  store ptr %3, ptr %9, align 8
  store i64 %4, ptr %10, align 8
  %13 = load ptr, ptr %9, align 8
  %14 = load i64, ptr %10, align 8
  %15 = call noundef nonnull align 8 dereferenceable(8) ptr @_ZNSt6vectorIxSaIxEEixEm(ptr noundef nonnull align 8 dereferenceable(24) %13, i64 noundef %14) #3
  %16 = load i64, ptr %15, align 8
  store i64 %16, ptr %12, align 8
  store i64 0, ptr %11, align 8
  br label %17

17:                                               ; preds = %34, %5
  %18 = load i64, ptr %11, align 8
  %19 = load i64, ptr %6, align 8
  %20 = icmp slt i64 %18, %19
  br i1 %20, label %21, label %37

21:                                               ; preds = %17
  %22 = load ptr, ptr %7, align 8
  %23 = load i64, ptr %11, align 8
  %24 = call noundef nonnull align 8 dereferenceable(8) ptr @_ZNKSt6vectorIxSaIxEEixEm(ptr noundef nonnull align 8 dereferenceable(24) %22, i64 noundef %23) #3
  %25 = load i64, ptr %24, align 8
  %26 = icmp eq i64 %25, 0
  br i1 %26, label %27, label %33

27:                                               ; preds = %21
  %28 = load i64, ptr %11, align 8
  %29 = load ptr, ptr %8, align 8
  %30 = load i64, ptr %12, align 8
  %31 = add nsw i64 %30, 1
  store i64 %31, ptr %12, align 8
  %32 = call noundef nonnull align 8 dereferenceable(8) ptr @_ZNSt6vectorIxSaIxEEixEm(ptr noundef nonnull align 8 dereferenceable(24) %29, i64 noundef %30) #3
  store i64 %28, ptr %32, align 8
  br label %33

33:                                               ; preds = %27, %21
  br label %34

34:                                               ; preds = %33
  %35 = load i64, ptr %11, align 8
  %36 = add nsw i64 %35, 1
  store i64 %36, ptr %11, align 8
  br label %17, !llvm.loop !98

37:                                               ; preds = %17
  %38 = load i64, ptr %12, align 8
  %39 = load ptr, ptr %9, align 8
  %40 = load i64, ptr %10, align 8
  %41 = add nsw i64 %40, 1
  %42 = call noundef nonnull align 8 dereferenceable(8) ptr @_ZNSt6vectorIxSaIxEEixEm(ptr noundef nonnull align 8 dereferenceable(24) %39, i64 noundef %41) #3
  store i64 %38, ptr %42, align 8
  ret void
}