; Function Attrs: mustprogress nofree norecurse nosync nounwind memory(readwrite, inaccessiblemem: none) uwtable
define void @_ZN6casadi16SparsityInternal9unmatchedExRKSt6vectorIxSaIxEERS3_S6_x(i64 noundef %0, ptr nocapture noundef nonnull readonly align 8 dereferenceable(24) %1, ptr nocapture noundef nonnull readonly align 8 dereferenceable(24) %2, ptr nocapture noundef nonnull readonly align 8 dereferenceable(24) %3, i64 noundef %4) local_unnamed_addr #4 align 2 {
  %6 = load ptr, ptr %3, align 8
  %7 = getelementptr inbounds i64, ptr %6, i64 %4
  %8 = load i64, ptr %7, align 8
  %9 = icmp sgt i64 %0, 0
  br i1 %9, label %.lr.ph, label %._crit_edge

.lr.ph:                                           ; preds = %5, %18
  %.014 = phi i64 [ %.1, %18 ], [ %8, %5 ]
  %.01213 = phi i64 [ %19, %18 ], [ 0, %5 ]
  %10 = load ptr, ptr %1, align 8
  %11 = getelementptr inbounds i64, ptr %10, i64 %.01213
  %12 = load i64, ptr %11, align 8
  %13 = icmp eq i64 %12, 0
  br i1 %13, label %14, label %18

14:                                               ; preds = %.lr.ph
  %15 = add nsw i64 %.014, 1
  %16 = load ptr, ptr %2, align 8
  %17 = getelementptr inbounds i64, ptr %16, i64 %.014
  store i64 %.01213, ptr %17, align 8
  br label %18

18:                                               ; preds = %.lr.ph, %14
  %.1 = phi i64 [ %15, %14 ], [ %.014, %.lr.ph ]
  %19 = add nuw nsw i64 %.01213, 1
  %exitcond.not = icmp eq i64 %19, %0
  br i1 %exitcond.not, label %._crit_edge.loopexit, label %.lr.ph, !llvm.loop !130

._crit_edge.loopexit:                             ; preds = %18
  %.pre = load ptr, ptr %3, align 8
  br label %._crit_edge

._crit_edge:                                      ; preds = %._crit_edge.loopexit, %5
  %20 = phi ptr [ %6, %5 ], [ %.pre, %._crit_edge.loopexit ]
  %.0.lcssa = phi i64 [ %8, %5 ], [ %.1, %._crit_edge.loopexit ]
  %21 = getelementptr i64, ptr %20, i64 %4
  %22 = getelementptr i8, ptr %21, i64 8
  store i64 %.0.lcssa, ptr %22, align 8
  ret void
}